Certificate:
    Data:
        Version: 3 (0x2)
        Serial Number:
            cd:5a:66:67:b0:66:74:1d
        Signature Algorithm: sha1WithRSAEncryption
        Issuer: C=US, ST=CA, L=SF, O=AM, OU=SW, CN=localhost/emailAddress=ariflo@arianflores.com
        Validity
            Not Before: Sep 18 20:27:52 2017 GMT
            Not After : Oct 18 20:27:52 2017 GMT
        Subject: C=US, ST=CA, L=SF, O=AM, OU=SW, CN=localhost/emailAddress=ariflo@arianflores.com
        Subject Public Key Info:
            Public Key Algorithm: rsaEncryption
            RSA Public Key: (1024 bit)
                Modulus (1024 bit):
                    00:ca:86:3e:08:9f:83:b0:61:b8:9c:04:5f:61:51:
                    d3:85:05:ef:82:97:d8:af:34:59:b7:e3:00:f6:f8:
                    84:aa:11:f1:4d:8b:f1:c6:6e:b1:43:49:ab:5d:b2:
                    6c:53:d7:b0:98:f3:47:2f:fb:89:3f:b6:1c:f7:e9:
                    ee:d7:9f:41:8b:ff:6f:4d:20:9a:83:b8:c3:24:63:
                    95:1e:0a:97:33:ca:27:03:e4:51:35:ce:ff:79:55:
                    c8:d6:fd:ba:3c:35:f8:2e:5b:b2:3d:f6:d1:88:b6:
                    f8:c5:b2:88:22:59:26:c8:52:db:2a:30:7d:74:7c:
                    05:48:64:3f:e9:d4:d6:22:e1
                Exponent: 65537 (0x10001)
        X509v3 extensions:
            X509v3 Subject Key Identifier: 
                D9:64:70:BD:E7:7E:BB:1F:48:11:2A:E9:E0:34:FB:16:AF:36:A6:91
            X509v3 Authority Key Identifier: 
                keyid:D9:64:70:BD:E7:7E:BB:1F:48:11:2A:E9:E0:34:FB:16:AF:36:A6:91
                DirName:/C=US/ST=CA/L=SF/O=AM/OU=SW/CN=localhost/emailAddress=ariflo@arianflores.com
                serial:CD:5A:66:67:B0:66:74:1D

            X509v3 Basic Constraints: 
                CA:TRUE
    Signature Algorithm: sha1WithRSAEncryption
        a8:29:26:a3:df:02:0e:04:d9:73:60:aa:09:54:1b:14:6a:25:
        cd:b8:36:28:e0:e6:b0:15:ba:87:d1:ac:ac:ed:36:99:b5:6a:
        e4:70:59:44:50:3d:64:c0:1a:bb:fd:42:e5:17:c6:b7:2c:9b:
        1c:67:32:50:12:ab:94:16:f5:7f:d5:03:7f:db:1f:03:eb:ac:
        c4:3a:c1:41:86:b7:5d:47:5f:ed:cc:ac:1d:b3:c9:8a:70:7f:
        2d:ed:d8:2c:ac:72:d9:49:1a:5f:df:50:4c:55:c4:e2:d2:cc:
        f0:02:d5:0f:d4:fe:99:72:07:92:b1:c8:7d:95:b3:af:db:20:
        03:65
-----BEGIN CERTIFICATE-----
MIIDWTCCAsKgAwIBAgIJAM1aZmewZnQdMA0GCSqGSIb3DQEBBQUAMHwxCzAJBgNV
BAYTAlVTMQswCQYDVQQIEwJDQTELMAkGA1UEBxMCU0YxCzAJBgNVBAoTAkFNMQsw
CQYDVQQLEwJTVzESMBAGA1UEAxMJbG9jYWxob3N0MSUwIwYJKoZIhvcNAQkBFhZh
cmlmbG9AYXJpYW5mbG9yZXMuY29tMB4XDTE3MDkxODIwMjc1MloXDTE3MTAxODIw
Mjc1MlowfDELMAkGA1UEBhMCVVMxCzAJBgNVBAgTAkNBMQswCQYDVQQHEwJTRjEL
MAkGA1UEChMCQU0xCzAJBgNVBAsTAlNXMRIwEAYDVQQDEwlsb2NhbGhvc3QxJTAj
BgkqhkiG9w0BCQEWFmFyaWZsb0BhcmlhbmZsb3Jlcy5jb20wgZ8wDQYJKoZIhvcN
AQEBBQADgY0AMIGJAoGBAMqGPgifg7BhuJwEX2FR04UF74KX2K80WbfjAPb4hKoR
8U2L8cZusUNJq12ybFPXsJjzRy/7iT+2HPfp7tefQYv/b00gmoO4wyRjlR4KlzPK
JwPkUTXO/3lVyNb9ujw1+C5bsj320Yi2+MWyiCJZJshS2yowfXR8BUhkP+nU1iLh
AgMBAAGjgeIwgd8wHQYDVR0OBBYEFNlkcL3nfrsfSBEq6eA0+xavNqaRMIGvBgNV
HSMEgacwgaSAFNlkcL3nfrsfSBEq6eA0+xavNqaRoYGApH4wfDELMAkGA1UEBhMC
VVMxCzAJBgNVBAgTAkNBMQswCQYDVQQHEwJTRjELMAkGA1UEChMCQU0xCzAJBgNV
BAsTAlNXMRIwEAYDVQQDEwlsb2NhbGhvc3QxJTAjBgkqhkiG9w0BCQEWFmFyaWZs
b0BhcmlhbmZsb3Jlcy5jb22CCQDNWmZnsGZ0HTAMBgNVHRMEBTADAQH/MA0GCSqG
SIb3DQEBBQUAA4GBAKgpJqPfAg4E2XNgqglUGxRqJc24Nijg5rAVuofRrKztNpm1
auRwWURQPWTAGrv9QuUXxrcsmxxnMlASq5QW9X/VA3/bHwPrrMQ6wUGGt11HX+3M
rB2zyYpwfy3t2CysctlJGl/fUExVxOLSzPAC1Q/U/plyB5KxyH2Vs6/bIANl
-----END CERTIFICATE-----
